target datalayout = "e-m:e-p270:32:32-p271:32:32-p272:64:64-i64:64-i128:128-f80:128-n8:16:32:64-S128"
target triple = "x86_64-pc-linux-gnu"

%"struct.std::atomic" = type { %"struct.std::__atomic_base" }
%"struct.std::__atomic_base" = type { ptr }
%"struct.std::atomic.2" = type { %"struct.std::__atomic_base.3" }
%"struct.std::__atomic_base.3" = type { i8 }
%"class.std::__cxx11::basic_string" = type { %"struct.std::__cxx11::basic_string<char>::_Alloc_hider", i64, %union.anon }
%"struct.std::__cxx11::basic_string<char>::_Alloc_hider" = type { ptr }
%union.anon = type { i64, [8 x i8] }
%"class.pxrInternal_v0_24__pxrReserved__::Tf_TypeRegistry" = type <{ %"class.pxrInternal_v0_24__pxrReserved__::TfBigRWMutex", %"struct.std::atomic.4", %"class.pxrInternal_v0_24__pxrReserved__::TfHashMap", %"class.pxrInternal_v0_24__pxrReserved__::TfTypeInfoMap", ptr, ptr, i8, [7 x i8] }>
%"class.pxrInternal_v0_24__pxrReserved__::TfBigRWMutex" = type <{ %"class.std::unique_ptr", %"struct.std::atomic.2", [7 x i8] }>
%"class.std::unique_ptr" = type { %"struct.std::__uniq_ptr_data" }
%"struct.std::__uniq_ptr_data" = type { %"class.std::__uniq_ptr_impl" }
%"class.std::__uniq_ptr_impl" = type { %"class.std::tuple" }
%"class.std::tuple" = type { %"struct.std::_Tuple_impl" }
%"struct.std::_Tuple_impl" = type { %"struct.std::_Head_base.1" }
%"struct.std::_Head_base.1" = type { ptr }
%"struct.std::atomic.4" = type { %"class.std::thread::id" }
%"class.std::thread::id" = type { i64 }
%"class.pxrInternal_v0_24__pxrReserved__::TfHashMap" = type { %"class.std::unordered_map" }
%"class.std::unordered_map" = type { %"class.std::_Hashtable" }
%"class.std::_Hashtable" = type { ptr, i64, %"struct.std::__detail::_Hash_node_base", i64, %"struct.std::__detail::_Prime_rehash_policy", ptr }
%"struct.std::__detail::_Hash_node_base" = type { ptr }
%"struct.std::__detail::_Prime_rehash_policy" = type { float, i64 }
%"class.pxrInternal_v0_24__pxrReserved__::TfTypeInfoMap" = type { %"class.pxrInternal_v0_24__pxrReserved__::TfHashMap.7", %"class.pxrInternal_v0_24__pxrReserved__::TfHashMap.22", %"class.pxrInternal_v0_24__pxrReserved__::TfHashMap.40" }
%"class.pxrInternal_v0_24__pxrReserved__::TfHashMap.7" = type { %"class.std::unordered_map.8" }
%"class.std::unordered_map.8" = type { %"class.std::_Hashtable.9" }
%"class.std::_Hashtable.9" = type { ptr, i64, %"struct.std::__detail::_Hash_node_base", i64, %"struct.std::__detail::_Prime_rehash_policy", ptr }
%"class.pxrInternal_v0_24__pxrReserved__::TfHashMap.22" = type { %"class.std::unordered_map.23" }
%"class.std::unordered_map.23" = type { %"class.std::_Hashtable.24" }
%"class.std::_Hashtable.24" = type { ptr, i64, %"struct.std::__detail::_Hash_node_base", i64, %"struct.std::__detail::_Prime_rehash_policy", ptr }
%"class.pxrInternal_v0_24__pxrReserved__::TfHashMap.40" = type { %"class.std::unordered_map.41" }
%"class.std::unordered_map.41" = type { %"class.std::_Hashtable.42" }
%"class.std::_Hashtable.42" = type { ptr, i64, %"struct.std::__detail::_Hash_node_base", i64, %"struct.std::__detail::_Prime_rehash_policy", ptr }
%"struct.pxrInternal_v0_24__pxrReserved__::TfType::_TypeInfo" = type <{ %"class.pxrInternal_v0_24__pxrReserved__::TfType", %"class.std::__cxx11::basic_string", ptr, %"struct.std::atomic.58", i64, %"class.std::vector", %"class.std::vector", %"class.std::unique_ptr.63", %"class.std::optional", %"class.std::optional.73", %"class.std::vector.101", %"class.std::unique_ptr.106", i8, i8, i8, [5 x i8] }>
%"class.pxrInternal_v0_24__pxrReserved__::TfType" = type { ptr }
%"struct.std::atomic.58" = type { %"struct.std::__atomic_base.59" }
%"struct.std::__atomic_base.59" = type { ptr }
%"class.std::vector" = type { %"struct.std::_Vector_base" }
%"struct.std::_Vector_base" = type { %"struct.std::_Vector_base<pxrInternal_v0_24__pxrReserved__::TfType, std::allocator<pxrInternal_v0_24__pxrReserved__::TfType>>::_Vector_impl" }
%"struct.std::_Vector_base<pxrInternal_v0_24__pxrReserved__::TfType, std::allocator<pxrInternal_v0_24__pxrReserved__::TfType>>::_Vector_impl" = type { %"struct.std::_Vector_base<pxrInternal_v0_24__pxrReserved__::TfType, std::allocator<pxrInternal_v0_24__pxrReserved__::TfType>>::_Vector_impl_data" }
%"struct.std::_Vector_base<pxrInternal_v0_24__pxrReserved__::TfType, std::allocator<pxrInternal_v0_24__pxrReserved__::TfType>>::_Vector_impl_data" = type { ptr, ptr, ptr }
%"class.std::unique_ptr.63" = type { %"struct.std::__uniq_ptr_data.64" }
%"struct.std::__uniq_ptr_data.64" = type { %"class.std::__uniq_ptr_impl.65" }
%"class.std::__uniq_ptr_impl.65" = type { %"class.std::tuple.66" }
%"class.std::tuple.66" = type { %"struct.std::_Tuple_impl.67" }
%"struct.std::_Tuple_impl.67" = type { %"struct.std::_Head_base.70" }
%"struct.std::_Head_base.70" = type { ptr }
%"class.std::optional" = type { %"struct.std::_Optional_base" }
%"struct.std::_Optional_base" = type { %"struct.std::_Optional_payload" }
%"struct.std::_Optional_payload" = type { %"struct.std::_Optional_payload.base", [7 x i8] }
%"struct.std::_Optional_payload.base" = type { %"struct.std::_Optional_payload_base.base" }
%"struct.std::_Optional_payload_base.base" = type <{ %"union.std::_Optional_payload_base<pxrInternal_v0_24__pxrReserved__::TfHashMap<std::__cxx11::basic_string<char>, pxrInternal_v0_24__pxrReserved__::TfType::_TypeInfo *, pxrInternal_v0_24__pxrReserved__::TfHash>>::_Storage", i8 }>
%"union.std::_Optional_payload_base<pxrInternal_v0_24__pxrReserved__::TfHashMap<std::__cxx11::basic_string<char>, pxrInternal_v0_24__pxrReserved__::TfType::_TypeInfo *, pxrInternal_v0_24__pxrReserved__::TfHash>>::_Storage" = type { %"class.pxrInternal_v0_24__pxrReserved__::TfHashMap" }
%"class.std::optional.73" = type { %"struct.std::_Optional_base.74" }
%"struct.std::_Optional_base.74" = type { %"struct.std::_Optional_payload.76" }
%"struct.std::_Optional_payload.76" = type { %"struct.std::_Optional_payload.base.98", [7 x i8] }
%"struct.std::_Optional_payload.base.98" = type { %"struct.std::_Optional_payload_base.base.97" }
%"struct.std::_Optional_payload_base.base.97" = type <{ %"union.std::_Optional_payload_base<pxrInternal_v0_24__pxrReserved__::TfHashMap<pxrInternal_v0_24__pxrReserved__::TfType::_TypeInfo *, std::vector<std::__cxx11::basic_string<char>>, pxrInternal_v0_24__pxrReserved__::TfHash>>::_Storage", i8 }>
%"union.std::_Optional_payload_base<pxrInternal_v0_24__pxrReserved__::TfHashMap<pxrInternal_v0_24__pxrReserved__::TfType::_TypeInfo *, std::vector<std::__cxx11::basic_string<char>>, pxrInternal_v0_24__pxrReserved__::TfHash>>::_Storage" = type { %"class.pxrInternal_v0_24__pxrReserved__::TfHashMap.79" }
%"class.pxrInternal_v0_24__pxrReserved__::TfHashMap.79" = type { %"class.std::unordered_map.80" }
%"class.std::unordered_map.80" = type { %"class.std::_Hashtable.81" }
%"class.std::_Hashtable.81" = type { ptr, i64, %"struct.std::__detail::_Hash_node_base", i64, %"struct.std::__detail::_Prime_rehash_policy", ptr }
%"class.std::vector.101" = type { %"struct.std::_Vector_base.102" }
%"struct.std::_Vector_base.102" = type { %"struct.std::_Vector_base<std::pair<const std::type_info *, void *(*)(void *, bool)>, std::allocator<std::pair<const std::type_info *, void *(*)(void *, bool)>>>::_Vector_impl" }
%"struct.std::_Vector_base<std::pair<const std::type_info *, void *(*)(void *, bool)>, std::allocator<std::pair<const std::type_info *, void *(*)(void *, bool)>>>::_Vector_impl" = type { %"struct.std::_Vector_base<std::pair<const std::type_info *, void *(*)(void *, bool)>, std::allocator<std::pair<const std::type_info *, void *(*)(void *, bool)>>>::_Vector_impl_data" }
%"struct.std::_Vector_base<std::pair<const std::type_info *, void *(*)(void *, bool)>, std::allocator<std::pair<const std::type_info *, void *(*)(void *, bool)>>>::_Vector_impl_data" = type { ptr, ptr, ptr }
%"class.std::unique_ptr.106" = type { %"struct.std::__uniq_ptr_data.107" }
%"struct.std::__uniq_ptr_data.107" = type { %"class.std::__uniq_ptr_impl.108" }
%"class.std::__uniq_ptr_impl.108" = type { %"class.std::tuple.109" }
%"class.std::tuple.109" = type { %"struct.std::_Tuple_impl.110" }
%"struct.std::_Tuple_impl.110" = type { %"struct.std::_Head_base.113" }
%"struct.std::_Head_base.113" = type { ptr }

@_ZN32pxrInternal_v0_24__pxrReserved__11TfSingletonINS_15Tf_TypeRegistryEE9_instanceE = weak_odr global %"struct.std::atomic" zeroinitializer, comdat, align 8

; Function Attrs: mustprogress nounwind uwtable
define linkonce_odr noundef i32 @_ZStanSt12memory_orderSt23__memory_order_modifier(i32 noundef %0, i32 noundef %1) #5 comdat {
  %3 = alloca i32, align 4
  %4 = alloca i32, align 4
  store i32 %0, ptr %3, align 4
  store i32 %1, ptr %4, align 4
  %5 = load i32, ptr %3, align 4
  %6 = load i32, ptr %4, align 4
  %7 = and i32 %5, %6
  ret i32 %7
}

; Function Attrs: mustprogress nounwind uwtable
define linkonce_odr noundef ptr @_ZNKSt6atomicIPN32pxrInternal_v0_24__pxrReserved__15Tf_TypeRegistryEE4loadESt12memory_order(ptr noundef nonnull align 8 dereferenceable(8) %0, i32 noundef %1) #5 comdat align 2 {
  %3 = alloca ptr, align 8
  %4 = alloca i32, align 4
  %5 = alloca i32, align 4
  %6 = alloca ptr, align 8
  %7 = alloca ptr, align 8
  %8 = alloca i32, align 4
  store ptr %0, ptr %7, align 8
  store i32 %1, ptr %8, align 4
  %9 = load ptr, ptr %7, align 8
  %10 = getelementptr inbounds nuw %"struct.std::atomic", ptr %9, i32 0, i32 0
  %11 = load i32, ptr %8, align 4
  store ptr %10, ptr %3, align 8
  store i32 %11, ptr %4, align 4
  %12 = load ptr, ptr %3, align 8
  %13 = load i32, ptr %4, align 4
  %14 = call noundef i32 @_ZStanSt12memory_orderSt23__memory_order_modifier(i32 noundef %13, i32 noundef 65535)
  store i32 %14, ptr %5, align 4
  %15 = load i32, ptr %4, align 4
  switch i32 %15, label %16 [
    i32 1, label %18
    i32 2, label %18
    i32 5, label %20
  ]

16:                                               ; preds = %2
  %17 = load atomic i64, ptr %12 monotonic, align 8
  store i64 %17, ptr %6, align 8
  br label %22

18:                                               ; preds = %2, %2
  %19 = load atomic i64, ptr %12 acquire, align 8
  store i64 %19, ptr %6, align 8
  br label %22

20:                                               ; preds = %2
  %21 = load atomic i64, ptr %12 seq_cst, align 8
  store i64 %21, ptr %6, align 8
  br label %22

22:                                               ; preds = %20, %18, %16
  %23 = load ptr, ptr %6, align 8
  ret ptr %23
}

; Function Attrs: mustprogress uwtable
define weak_odr noundef nonnull align 8 dereferenceable(265) ptr @_ZN32pxrInternal_v0_24__pxrReserved__11TfSingletonINS_15Tf_TypeRegistryEE11GetInstanceEv() #4 comdat align 2 {
  %1 = alloca ptr, align 8
  %2 = call noundef ptr @_ZNKSt6atomicIPN32pxrInternal_v0_24__pxrReserved__15Tf_TypeRegistryEE4loadESt12memory_order(ptr noundef nonnull align 8 dereferenceable(8) @_ZN32pxrInternal_v0_24__pxrReserved__11TfSingletonINS_15Tf_TypeRegistryEE9_instanceE, i32 noundef 5) #3
  store ptr %2, ptr %1, align 8
  %3 = load ptr, ptr %1, align 8
  %4 = icmp ne ptr %3, null
  br i1 %4, label %7, label %5

5:                                                ; preds = %0
  %6 = call noundef ptr @_ZN32pxrInternal_v0_24__pxrReserved__11TfSingletonINS_15Tf_TypeRegistryEE15_CreateInstanceERSt6atomicIPS1_E(ptr noundef nonnull align 8 dereferenceable(8) @_ZN32pxrInternal_v0_24__pxrReserved__11TfSingletonINS_15Tf_TypeRegistryEE9_instanceE)
  store ptr %6, ptr %1, align 8
  br label %7

7:                                                ; preds = %5, %0
  %8 = load ptr, ptr %1, align 8
  ret ptr %8
}

; Function Attrs: mustprogress nounwind uwtable
define linkonce_odr noundef ptr @_ZNK32pxrInternal_v0_24__pxrReserved__15Tf_TypeRegistry7GetRootEv(ptr noundef nonnull align 8 dereferenceable(265) %0) #5 comdat align 2 {
  %2 = alloca ptr, align 8
  store ptr %0, ptr %2, align 8
  %3 = load ptr, ptr %2, align 8
  %4 = getelementptr inbounds nuw %"class.pxrInternal_v0_24__pxrReserved__::Tf_TypeRegistry", ptr %3, i32 0, i32 5
  %5 = load ptr, ptr %4, align 8
  ret ptr %5
}

; Function Attrs: mustprogress uwtable
define linkonce_odr noundef nonnull align 8 dereferenceable(265) ptr @_ZN32pxrInternal_v0_24__pxrReserved__15Tf_TypeRegistry11GetInstanceEv() #4 comdat align 2 {
  %1 = call noundef nonnull align 8 dereferenceable(265) ptr @_ZN32pxrInternal_v0_24__pxrReserved__11TfSingletonINS_15Tf_TypeRegistryEE11GetInstanceEv()
  ret ptr %1
}

; Function Attrs: mustprogress uwtable
define noundef nonnull align 8 dereferenceable(8) ptr @_ZN32pxrInternal_v0_24__pxrReserved__6TfType7GetRootEv() #4 align 2 {
  %1 = call noundef nonnull align 8 dereferenceable(265) ptr @_ZN32pxrInternal_v0_24__pxrReserved__15Tf_TypeRegistry11GetInstanceEv()
  %2 = call noundef ptr @_ZNK32pxrInternal_v0_24__pxrReserved__15Tf_TypeRegistry7GetRootEv(ptr noundef nonnull align 8 dereferenceable(265) %1)
  %3 = getelementptr inbounds nuw %"struct.pxrInternal_v0_24__pxrReserved__::TfType::_TypeInfo", ptr %2, i32 0, i32 0
  ret ptr %3
}

; Function Attrs: mustprogress uwtable
define noundef nonnull align 8 dereferenceable(8) ptr @_ZN32pxrInternal_v0_24__pxrReserved__6TfType10FindByNameERKNSt7__cxx1112basic_stringIcSt11char_traitsIcESaIcEEE(ptr noundef nonnull align 8 dereferenceable(32) %0) #4 align 2 {
  %2 = alloca ptr, align 8
  store ptr %0, ptr %2, align 8
  %3 = call noundef nonnull align 8 dereferenceable(8) ptr @_ZN32pxrInternal_v0_24__pxrReserved__6TfType7GetRootEv()
  %4 = load ptr, ptr %2, align 8
  %5 = call noundef nonnull align 8 dereferenceable(8) ptr @_ZNK32pxrInternal_v0_24__pxrReserved__6TfType17FindDerivedByNameERKNSt7__cxx1112basic_stringIcSt11char_traitsIcESaIcEEE(ptr noundef nonnull align 8 dereferenceable(8) %3, ptr noundef nonnull align 8 dereferenceable(32) %4)
  ret ptr %5
}