; Function Attrs: mustprogress uwtable
define noundef nonnull align 8 dereferenceable(8) ptr @_ZN32pxrInternal_v0_24__pxrReserved__6TfType10FindByNameERKNSt7__cxx1112basic_stringIcSt11char_traitsIcESaIcEEE(ptr noundef nonnull align 8 dereferenceable(32) %0) local_unnamed_addr #3 align 2 {
  %2 = load atomic i64, ptr @_ZN32pxrInternal_v0_24__pxrReserved__11TfSingletonINS_15Tf_TypeRegistryEE9_instanceE seq_cst, align 8
  %.0.i.i.i.i = inttoptr i64 %2 to ptr
  %.not.i.i.i = icmp eq i64 %2, 0
  br i1 %.not.i.i.i, label %3, label %_ZN32pxrInternal_v0_24__pxrReserved__6TfType7GetRootEv.exit

3:                                                ; preds = %1
  %4 = tail call noundef ptr @_ZN32pxrInternal_v0_24__pxrReserved__11TfSingletonINS_15Tf_TypeRegistryEE15_CreateInstanceERSt6atomicIPS1_E(ptr noundef nonnull align 8 dereferenceable(8) @_ZN32pxrInternal_v0_24__pxrReserved__11TfSingletonINS_15Tf_TypeRegistryEE9_instanceE)
  br label %_ZN32pxrInternal_v0_24__pxrReserved__6TfType7GetRootEv.exit

_ZN32pxrInternal_v0_24__pxrReserved__6TfType7GetRootEv.exit: ; preds = %1, %3
  %.0.i.i.i = phi ptr [ %.0.i.i.i.i, %1 ], [ %4, %3 ]
  %5 = getelementptr inbounds nuw i8, ptr %.0.i.i.i, i64 256
  %6 = load ptr, ptr %5, align 8
  %7 = tail call noundef nonnull align 8 dereferenceable(8) ptr @_ZNK32pxrInternal_v0_24__pxrReserved__6TfType17FindDerivedByNameERKNSt7__cxx1112basic_stringIcSt11char_traitsIcESaIcEEE(ptr noundef nonnull align 8 dereferenceable(8) %6, ptr noundef nonnull align 8 dereferenceable(32) %0)
  ret ptr %7
}